; Function Attrs: nounwind uwtable
define void @dt_gui_presets_update_autoapply(ptr noundef %0, ptr noundef %1, i32 noundef %2, i32 noundef %3) local_unnamed_addr #0 {
  %5 = alloca ptr, align 8
  call void @llvm.lifetime.start.p0(i64 8, ptr nonnull %5) #16
  %6 = load i32, ptr getelementptr inbounds nuw (i8, ptr @darktable, i64 8), align 8, !tbaa !14
  %7 = and i32 %6, 256
  %.not = icmp eq i32 %7, 0
  br i1 %.not, label %9, label %8

8:                                                ; preds = %4
  tail call void (ptr, ...) @dt_print_ext(ptr noundef nonnull @.str.46, ptr noundef nonnull @.str.43, i32 noundef 2007, ptr noundef nonnull @__FUNCTION__.dt_gui_presets_update_autoapply, ptr noundef nonnull @.str.102) #16
  br label %9

9:                                                ; preds = %8, %4
  %10 = load ptr, ptr getelementptr inbounds nuw (i8, ptr @darktable, i64 136), align 8, !tbaa !53
  %11 = tail call ptr @dt_database_get(ptr noundef %10) #16
  %12 = call i32 @sqlite3_prepare_v2(ptr noundef %11, ptr noundef nonnull @.str.102, i32 noundef -1, ptr noundef nonnull %5, ptr noundef null) #16
  %.not8 = icmp eq i32 %12, 0
  br i1 %.not8, label %19, label %13

13:                                               ; preds = %9
  %14 = load ptr, ptr @stderr, align 8, !tbaa !54
  %15 = load ptr, ptr getelementptr inbounds nuw (i8, ptr @darktable, i64 136), align 8, !tbaa !53
  %16 = call ptr @dt_database_get(ptr noundef %15) #16
  %17 = call ptr @sqlite3_errmsg(ptr noundef %16) #16
  %18 = call i32 (ptr, ptr, ...) @fprintf(ptr noundef %14, ptr noundef nonnull @.str.45, ptr noundef nonnull @.str.43, i32 noundef 2007, ptr noundef nonnull @__FUNCTION__.dt_gui_presets_update_autoapply, ptr noundef nonnull @.str.102, ptr noundef %17) #17
  br label %19

19:                                               ; preds = %13, %9
  %20 = load ptr, ptr %5, align 8, !tbaa !56
  %21 = call i32 @sqlite3_bind_int(ptr noundef %20, i32 noundef 1, i32 noundef %3) #16
  %.not9 = icmp eq i32 %21, 0
  br i1 %.not9, label %28, label %22

22:                                               ; preds = %19
  %23 = load ptr, ptr @stderr, align 8, !tbaa !54
  %24 = load ptr, ptr getelementptr inbounds nuw (i8, ptr @darktable, i64 136), align 8, !tbaa !53
  %25 = call ptr @dt_database_get(ptr noundef %24) #16
  %26 = call ptr @sqlite3_errmsg(ptr noundef %25) #16
  %27 = call i32 (ptr, ptr, ...) @fprintf(ptr noundef %23, ptr noundef nonnull @.str.48, ptr noundef nonnull @.str.43, i32 noundef 2009, ptr noundef nonnull @__FUNCTION__.dt_gui_presets_update_autoapply, ptr noundef %26) #17
  br label %28

28:                                               ; preds = %22, %19
  %29 = load ptr, ptr %5, align 8, !tbaa !56
  %30 = call i32 @sqlite3_bind_text(ptr noundef %29, i32 noundef 2, ptr noundef %1, i32 noundef -1, ptr noundef nonnull inttoptr (i64 -1 to ptr)) #16
  %.not10 = icmp eq i32 %30, 0
  br i1 %.not10, label %37, label %31

31:                                               ; preds = %28
  %32 = load ptr, ptr @stderr, align 8, !tbaa !54
  %33 = load ptr, ptr getelementptr inbounds nuw (i8, ptr @darktable, i64 136), align 8, !tbaa !53
  %34 = call ptr @dt_database_get(ptr noundef %33) #16
  %35 = call ptr @sqlite3_errmsg(ptr noundef %34) #16
  %36 = call i32 (ptr, ptr, ...) @fprintf(ptr noundef %32, ptr noundef nonnull @.str.48, ptr noundef nonnull @.str.43, i32 noundef 2010, ptr noundef nonnull @__FUNCTION__.dt_gui_presets_update_autoapply, ptr noundef %35) #17
  br label %37

37:                                               ; preds = %31, %28
  %38 = load ptr, ptr %5, align 8, !tbaa !56
  %39 = call i32 @sqlite3_bind_int(ptr noundef %38, i32 noundef 3, i32 noundef %2) #16
  %.not11 = icmp eq i32 %39, 0
  br i1 %.not11, label %46, label %40

40:                                               ; preds = %37
  %41 = load ptr, ptr @stderr, align 8, !tbaa !54
  %42 = load ptr, ptr getelementptr inbounds nuw (i8, ptr @darktable, i64 136), align 8, !tbaa !53
  %43 = call ptr @dt_database_get(ptr noundef %42) #16
  %44 = call ptr @sqlite3_errmsg(ptr noundef %43) #16
  %45 = call i32 (ptr, ptr, ...) @fprintf(ptr noundef %41, ptr noundef nonnull @.str.48, ptr noundef nonnull @.str.43, i32 noundef 2011, ptr noundef nonnull @__FUNCTION__.dt_gui_presets_update_autoapply, ptr noundef %44) #17
  br label %46

46:                                               ; preds = %40, %37
  %47 = load ptr, ptr %5, align 8, !tbaa !56
  %48 = call i32 @sqlite3_bind_text(ptr noundef %47, i32 noundef 4, ptr noundef %0, i32 noundef -1, ptr noundef nonnull inttoptr (i64 -1 to ptr)) #16
  %.not12 = icmp eq i32 %48, 0
  br i1 %.not12, label %55, label %49

49:                                               ; preds = %46
  %50 = load ptr, ptr @stderr, align 8, !tbaa !54
  %51 = load ptr, ptr getelementptr inbounds nuw (i8, ptr @darktable, i64 136), align 8, !tbaa !53
  %52 = call ptr @dt_database_get(ptr noundef %51) #16
  %53 = call ptr @sqlite3_errmsg(ptr noundef %52) #16
  %54 = call i32 (ptr, ptr, ...) @fprintf(ptr noundef %50, ptr noundef nonnull @.str.48, ptr noundef nonnull @.str.43, i32 noundef 2012, ptr noundef nonnull @__FUNCTION__.dt_gui_presets_update_autoapply, ptr noundef %53) #17
  br label %55

55:                                               ; preds = %49, %46
  %56 = load ptr, ptr %5, align 8, !tbaa !56
  %57 = call i32 @sqlite3_step(ptr noundef %56) #16
  %58 = load ptr, ptr %5, align 8, !tbaa !56
  %59 = call i32 @sqlite3_finalize(ptr noundef %58) #16
  call void @llvm.lifetime.end.p0(i64 8, ptr nonnull %5) #16
  ret void
}